
ProyectoEmbebidos.elf:     file format elf32-avr

Sections:
Idx Name          Size      VMA       LMA       File off  Algn
  0 .data         00000000  00800100  00800100  00000b12  2**0
                  ALLOC, LOAD, DATA
  1 .text         000000ce  00000000  00000000  000000d4  2**1
                  CONTENTS, ALLOC, LOAD, READONLY, CODE
  2 .comment      0000002f  00000000  00000000  00000b12  2**0
                  CONTENTS, READONLY
  3 .debug_aranges 00000130  00000000  00000000  00000b41  2**0
                  CONTENTS, READONLY, DEBUGGING
  4 .debug_info   00001db2  00000000  00000000  00000c71  2**0
                  CONTENTS, READONLY, DEBUGGING
  5 .debug_abbrev 00000b3c  00000000  00000000  00002a23  2**0
                  CONTENTS, READONLY, DEBUGGING
  6 .debug_line   00000d9c  00000000  00000000  0000355f  2**0
                  CONTENTS, READONLY, DEBUGGING
  7 .debug_frame  000002e8  00000000  00000000  000042fc  2**2
                  CONTENTS, READONLY, DEBUGGING
  8 .debug_str    0000027c  00000000  00000000  000045e4  2**0
                  CONTENTS, READONLY, DEBUGGING
  9 .debug_loc    00000b87  00000000  00000000  00004860  2**0
                  CONTENTS, READONLY, DEBUGGING
 10 .debug_ranges 00000100  00000000  00000000  000053e7  2**0
                  CONTENTS, READONLY, DEBUGGING
 11 .text         00000004  00000a3a  00000a3a  00000b0e  2**1
                  CONTENTS, ALLOC, LOAD, READONLY, CODE
 12 .note.gnu.avr.deviceinfo 00000040  00000000  00000000  000054e8  2**2
                  CONTENTS, READONLY, DEBUGGING
 13 .text.toggle_e 00000010  00000a0c  00000a0c  00000ae0  2**1
                  CONTENTS, ALLOC, LOAD, READONLY, CODE
 14 .text.lcd_write 000000d8  0000054e  0000054e  00000622  2**1
                  CONTENTS, ALLOC, LOAD, READONLY, CODE
 15 .text.lcd_read 00000076  0000074e  0000074e  00000822  2**1
                  CONTENTS, ALLOC, LOAD, READONLY, CODE
 16 .text.lcd_waitbusy 0000001a  00000986  00000986  00000a5a  2**1
                  CONTENTS, ALLOC, LOAD, READONLY, CODE
 17 .text.lcd_command 00000014  000009d0  000009d0  00000aa4  2**1
                  CONTENTS, ALLOC, LOAD, READONLY, CODE
 18 .text.lcd_gotoxy 00000014  000009e4  000009e4  00000ab8  2**1
                  CONTENTS, ALLOC, LOAD, READONLY, CODE
 19 .text.lcd_clrscr 00000008  00000a2a  00000a2a  00000afe  2**1
                  CONTENTS, ALLOC, LOAD, READONLY, CODE
 20 .text.lcd_home 00000008  00000a32  00000a32  00000b06  2**1
                  CONTENTS, ALLOC, LOAD, READONLY, CODE
 21 .text.lcd_putc 0000002a  00000910  00000910  000009e4  2**1
                  CONTENTS, ALLOC, LOAD, READONLY, CODE
 22 .text.lcd_puts 00000034  000008dc  000008dc  000009b0  2**1
                  CONTENTS, ALLOC, LOAD, READONLY, CODE
 23 .text.lcd_init 00000098  00000626  00000626  000006fa  2**1
                  CONTENTS, ALLOC, LOAD, READONLY, CODE
 24 .text.UART_init 0000002a  0000093a  0000093a  00000a0e  2**1
                  CONTENTS, ALLOC, LOAD, READONLY, CODE
 25 .text.UART_write 0000000e  00000a1c  00000a1c  00000af0  2**1
                  CONTENTS, ALLOC, LOAD, READONLY, CODE
 26 .text.ultraSonicoInit 00000022  00000964  00000964  00000a38  2**1
                  CONTENTS, ALLOC, LOAD, READONLY, CODE
 27 .progmemx.data 0000009d  000000ce  000000ce  000001a2  2**0
                  CONTENTS, ALLOC, LOAD, READONLY, PROGMEMX
 28 .text.servoInit 00000044  00000898  00000898  0000096c  2**1
                  CONTENTS, ALLOC, LOAD, READONLY, CODE
 29 .text.servoAngle 00000016  000009ba  000009ba  00000a8e  2**1
                  CONTENTS, ALLOC, LOAD, READONLY, CODE
 30 .text.interrupt_TIMER0_init 00000014  000009f8  000009f8  00000acc  2**1
                  CONTENTS, ALLOC, LOAD, READONLY, CODE
 31 .text.__vector_16 00000090  000006be  000006be  00000792  2**1
                  CONTENTS, ALLOC, LOAD, READONLY, CODE
 32 .text.main    000001b4  0000039a  0000039a  0000046e  2**1
                  CONTENTS, ALLOC, LOAD, READONLY, CODE
 33 .bss.onDuty   00000001  00800100  00800100  00000b12  2**0
                  ALLOC
 34 .data.direccion 00000001  00800101  0000016b  0000023f  2**0
                  CONTENTS, ALLOC, LOAD, DATA
 35 .bss.angulo   00000001  00800102  00800102  00000b12  2**0
                  ALLOC
 36 .text.kbrd_init 00000062  00000836  00000836  0000090a  2**1
                  CONTENTS, ALLOC, LOAD, READONLY, CODE
 37 .text.activate_column 00000072  000007c4  000007c4  00000898  2**1
                  CONTENTS, ALLOC, LOAD, READONLY, CODE
 38 .text.reset_columns 0000001a  000009a0  000009a0  00000a74  2**1
                  CONTENTS, ALLOC, LOAD, READONLY, CODE
 39 .text.kbrd_read 0000022e  0000016c  0000016c  00000240  2**1
                  CONTENTS, ALLOC, LOAD, READONLY, CODE

Disassembly of section .text:

00000000 <__vectors>:
   0:	0c 94 3d 00 	jmp	0x7a	; 0x7a <__ctors_end>
   4:	0c 94 1d 05 	jmp	0xa3a	; 0xa3a <__bad_interrupt>
   8:	0c 94 1d 05 	jmp	0xa3a	; 0xa3a <__bad_interrupt>
   c:	0c 94 1d 05 	jmp	0xa3a	; 0xa3a <__bad_interrupt>
  10:	0c 94 1d 05 	jmp	0xa3a	; 0xa3a <__bad_interrupt>
  14:	0c 94 1d 05 	jmp	0xa3a	; 0xa3a <__bad_interrupt>
  18:	0c 94 1d 05 	jmp	0xa3a	; 0xa3a <__bad_interrupt>
  1c:	0c 94 1d 05 	jmp	0xa3a	; 0xa3a <__bad_interrupt>
  20:	0c 94 1d 05 	jmp	0xa3a	; 0xa3a <__bad_interrupt>
  24:	0c 94 1d 05 	jmp	0xa3a	; 0xa3a <__bad_interrupt>
  28:	0c 94 1d 05 	jmp	0xa3a	; 0xa3a <__bad_interrupt>
  2c:	0c 94 1d 05 	jmp	0xa3a	; 0xa3a <__bad_interrupt>
  30:	0c 94 1d 05 	jmp	0xa3a	; 0xa3a <__bad_interrupt>
  34:	0c 94 1d 05 	jmp	0xa3a	; 0xa3a <__bad_interrupt>
  38:	0c 94 1d 05 	jmp	0xa3a	; 0xa3a <__bad_interrupt>
  3c:	0c 94 1d 05 	jmp	0xa3a	; 0xa3a <__bad_interrupt>
  40:	0c 94 5f 03 	jmp	0x6be	; 0x6be <__vector_16>
  44:	0c 94 1d 05 	jmp	0xa3a	; 0xa3a <__bad_interrupt>
  48:	0c 94 1d 05 	jmp	0xa3a	; 0xa3a <__bad_interrupt>
  4c:	0c 94 1d 05 	jmp	0xa3a	; 0xa3a <__bad_interrupt>
  50:	0c 94 1d 05 	jmp	0xa3a	; 0xa3a <__bad_interrupt>
  54:	0c 94 1d 05 	jmp	0xa3a	; 0xa3a <__bad_interrupt>
  58:	0c 94 1d 05 	jmp	0xa3a	; 0xa3a <__bad_interrupt>
  5c:	0c 94 1d 05 	jmp	0xa3a	; 0xa3a <__bad_interrupt>
  60:	0c 94 1d 05 	jmp	0xa3a	; 0xa3a <__bad_interrupt>
  64:	0c 94 1d 05 	jmp	0xa3a	; 0xa3a <__bad_interrupt>

00000068 <.dinit>:
  68:	01 00       	.word	0x0001	; ????
  6a:	01 01       	movw	r0, r2
  6c:	80 01       	movw	r16, r0
  6e:	01 01       	movw	r0, r2
  70:	02 00       	.word	0x0002	; ????
  72:	01 6b       	ori	r16, 0xB1	; 177
  74:	01 02       	muls	r16, r17
  76:	01 03       	mulsu	r16, r17
  78:	80 00       	.word	0x0080	; ????

0000007a <__ctors_end>:
  7a:	11 24       	eor	r1, r1
  7c:	1f be       	out	0x3f, r1	; 63
  7e:	cf ef       	ldi	r28, 0xFF	; 255
  80:	d8 e0       	ldi	r29, 0x08	; 8
  82:	de bf       	out	0x3e, r29	; 62
  84:	cd bf       	out	0x3d, r28	; 61

00000086 <__do_copy_data>:
  86:	e8 e6       	ldi	r30, 0x68	; 104
  88:	f0 e0       	ldi	r31, 0x00	; 0
  8a:	40 e0       	ldi	r20, 0x00	; 0
  8c:	17 c0       	rjmp	.+46     	; 0xbc <__do_clear_bss+0x8>
  8e:	b5 91       	lpm	r27, Z+
  90:	a5 91       	lpm	r26, Z+
  92:	35 91       	lpm	r19, Z+
  94:	25 91       	lpm	r18, Z+
  96:	05 91       	lpm	r16, Z+
  98:	07 fd       	sbrc	r16, 7
  9a:	0c c0       	rjmp	.+24     	; 0xb4 <__do_clear_bss>
  9c:	95 91       	lpm	r25, Z+
  9e:	85 91       	lpm	r24, Z+
  a0:	ef 01       	movw	r28, r30
  a2:	f9 2f       	mov	r31, r25
  a4:	e8 2f       	mov	r30, r24
  a6:	05 90       	lpm	r0, Z+
  a8:	0d 92       	st	X+, r0
  aa:	a2 17       	cp	r26, r18
  ac:	b3 07       	cpc	r27, r19
  ae:	d9 f7       	brne	.-10     	; 0xa6 <__do_copy_data+0x20>
  b0:	fe 01       	movw	r30, r28
  b2:	04 c0       	rjmp	.+8      	; 0xbc <__do_clear_bss+0x8>

000000b4 <__do_clear_bss>:
  b4:	1d 92       	st	X+, r1
  b6:	a2 17       	cp	r26, r18
  b8:	b3 07       	cpc	r27, r19
  ba:	e1 f7       	brne	.-8      	; 0xb4 <__do_clear_bss>
  bc:	e9 37       	cpi	r30, 0x79	; 121
  be:	f4 07       	cpc	r31, r20
  c0:	31 f7       	brne	.-52     	; 0x8e <__do_copy_data+0x8>
  c2:	0e 94 cd 01 	call	0x39a	; 0x39a <main>
  c6:	0c 94 65 00 	jmp	0xca	; 0xca <_exit>

000000ca <_exit>:
  ca:	f8 94       	cli

000000cc <__stop_program>:
  cc:	ff cf       	rjmp	.-2      	; 0xcc <__stop_program>

Disassembly of section .text:

00000a3a <__bad_interrupt>:
 a3a:	0c 94 00 00 	jmp	0	; 0x0 <__TEXT_REGION_ORIGIN__>

Disassembly of section .text.toggle_e:

00000a0c <toggle_e>:
/*************************************************************************
*************************************************************************/
int lcd_getxy(void)
{
    return lcd_waitbusy();
}
 a0c:	8b b1       	in	r24, 0x0b	; 11
 a0e:	80 62       	ori	r24, 0x20	; 32
 a10:	8b b9       	out	0x0b, r24	; 11
 a12:	00 c0       	rjmp	.+0      	; 0xa14 <toggle_e+0x8>
 a14:	8b b1       	in	r24, 0x0b	; 11
 a16:	8f 7d       	andi	r24, 0xDF	; 223
 a18:	8b b9       	out	0x0b, r24	; 11
 a1a:	08 95       	ret

Disassembly of section .text.lcd_write:

0000054e <lcd_write>:
 54e:	cf 93       	push	r28
 550:	c8 2f       	mov	r28, r24
 552:	66 23       	and	r22, r22
 554:	21 f0       	breq	.+8      	; 0x55e <lcd_write+0x10>
 556:	8b b1       	in	r24, 0x0b	; 11
 558:	80 61       	ori	r24, 0x10	; 16
 55a:	8b b9       	out	0x0b, r24	; 11
 55c:	03 c0       	rjmp	.+6      	; 0x564 <lcd_write+0x16>
 55e:	8b b1       	in	r24, 0x0b	; 11
 560:	8f 7e       	andi	r24, 0xEF	; 239
 562:	8b b9       	out	0x0b, r24	; 11
 564:	8b b1       	in	r24, 0x0b	; 11
 566:	87 7f       	andi	r24, 0xF7	; 247
 568:	8b b9       	out	0x0b, r24	; 11
 56a:	87 b1       	in	r24, 0x07	; 7
 56c:	82 60       	ori	r24, 0x02	; 2
 56e:	87 b9       	out	0x07, r24	; 7
 570:	87 b1       	in	r24, 0x07	; 7
 572:	84 60       	ori	r24, 0x04	; 4
 574:	87 b9       	out	0x07, r24	; 7
 576:	87 b1       	in	r24, 0x07	; 7
 578:	88 60       	ori	r24, 0x08	; 8
 57a:	87 b9       	out	0x07, r24	; 7
 57c:	87 b1       	in	r24, 0x07	; 7
 57e:	80 61       	ori	r24, 0x10	; 16
 580:	87 b9       	out	0x07, r24	; 7
 582:	88 b1       	in	r24, 0x08	; 8
 584:	8f 7e       	andi	r24, 0xEF	; 239
 586:	88 b9       	out	0x08, r24	; 8
 588:	88 b1       	in	r24, 0x08	; 8
 58a:	87 7f       	andi	r24, 0xF7	; 247
 58c:	88 b9       	out	0x08, r24	; 8
 58e:	88 b1       	in	r24, 0x08	; 8
 590:	8b 7f       	andi	r24, 0xFB	; 251
 592:	88 b9       	out	0x08, r24	; 8
 594:	88 b1       	in	r24, 0x08	; 8
 596:	8d 7f       	andi	r24, 0xFD	; 253
 598:	88 b9       	out	0x08, r24	; 8
 59a:	cc 23       	and	r28, r28
 59c:	1c f4       	brge	.+6      	; 0x5a4 <lcd_write+0x56>
 59e:	88 b1       	in	r24, 0x08	; 8
 5a0:	80 61       	ori	r24, 0x10	; 16
 5a2:	88 b9       	out	0x08, r24	; 8
 5a4:	c6 ff       	sbrs	r28, 6
 5a6:	03 c0       	rjmp	.+6      	; 0x5ae <lcd_write+0x60>
 5a8:	88 b1       	in	r24, 0x08	; 8
 5aa:	88 60       	ori	r24, 0x08	; 8
 5ac:	88 b9       	out	0x08, r24	; 8
 5ae:	c5 ff       	sbrs	r28, 5
 5b0:	03 c0       	rjmp	.+6      	; 0x5b8 <lcd_write+0x6a>
 5b2:	88 b1       	in	r24, 0x08	; 8
 5b4:	84 60       	ori	r24, 0x04	; 4
 5b6:	88 b9       	out	0x08, r24	; 8
 5b8:	c4 ff       	sbrs	r28, 4
 5ba:	03 c0       	rjmp	.+6      	; 0x5c2 <lcd_write+0x74>
 5bc:	88 b1       	in	r24, 0x08	; 8
 5be:	82 60       	ori	r24, 0x02	; 2
 5c0:	88 b9       	out	0x08, r24	; 8
 5c2:	0e 94 06 05 	call	0xa0c	; 0xa0c <toggle_e>
 5c6:	88 b1       	in	r24, 0x08	; 8
 5c8:	8f 7e       	andi	r24, 0xEF	; 239
 5ca:	88 b9       	out	0x08, r24	; 8
 5cc:	88 b1       	in	r24, 0x08	; 8
 5ce:	87 7f       	andi	r24, 0xF7	; 247
 5d0:	88 b9       	out	0x08, r24	; 8
 5d2:	88 b1       	in	r24, 0x08	; 8
 5d4:	8b 7f       	andi	r24, 0xFB	; 251
 5d6:	88 b9       	out	0x08, r24	; 8
 5d8:	88 b1       	in	r24, 0x08	; 8
 5da:	8d 7f       	andi	r24, 0xFD	; 253
 5dc:	88 b9       	out	0x08, r24	; 8
 5de:	c3 ff       	sbrs	r28, 3
 5e0:	03 c0       	rjmp	.+6      	; 0x5e8 <lcd_write+0x9a>
 5e2:	88 b1       	in	r24, 0x08	; 8
 5e4:	80 61       	ori	r24, 0x10	; 16
 5e6:	88 b9       	out	0x08, r24	; 8
 5e8:	c2 ff       	sbrs	r28, 2
 5ea:	03 c0       	rjmp	.+6      	; 0x5f2 <lcd_write+0xa4>
 5ec:	88 b1       	in	r24, 0x08	; 8
 5ee:	88 60       	ori	r24, 0x08	; 8
 5f0:	88 b9       	out	0x08, r24	; 8
 5f2:	c1 ff       	sbrs	r28, 1
 5f4:	03 c0       	rjmp	.+6      	; 0x5fc <lcd_write+0xae>
 5f6:	88 b1       	in	r24, 0x08	; 8
 5f8:	84 60       	ori	r24, 0x04	; 4
 5fa:	88 b9       	out	0x08, r24	; 8
 5fc:	c0 ff       	sbrs	r28, 0
 5fe:	03 c0       	rjmp	.+6      	; 0x606 <lcd_write+0xb8>
 600:	88 b1       	in	r24, 0x08	; 8
 602:	82 60       	ori	r24, 0x02	; 2
 604:	88 b9       	out	0x08, r24	; 8
 606:	0e 94 06 05 	call	0xa0c	; 0xa0c <toggle_e>
 60a:	88 b1       	in	r24, 0x08	; 8
 60c:	82 60       	ori	r24, 0x02	; 2
 60e:	88 b9       	out	0x08, r24	; 8
 610:	88 b1       	in	r24, 0x08	; 8
 612:	84 60       	ori	r24, 0x04	; 4
 614:	88 b9       	out	0x08, r24	; 8
 616:	88 b1       	in	r24, 0x08	; 8
 618:	88 60       	ori	r24, 0x08	; 8
 61a:	88 b9       	out	0x08, r24	; 8
 61c:	88 b1       	in	r24, 0x08	; 8
 61e:	80 61       	ori	r24, 0x10	; 16
 620:	88 b9       	out	0x08, r24	; 8
 622:	cf 91       	pop	r28
 624:	08 95       	ret

Disassembly of section .text.lcd_read:

0000074e <lcd_read>:
 74e:	88 23       	and	r24, r24
 750:	21 f0       	breq	.+8      	; 0x75a <lcd_read+0xc>
 752:	8b b1       	in	r24, 0x0b	; 11
 754:	80 61       	ori	r24, 0x10	; 16
 756:	8b b9       	out	0x0b, r24	; 11
 758:	03 c0       	rjmp	.+6      	; 0x760 <lcd_read+0x12>
 75a:	8b b1       	in	r24, 0x0b	; 11
 75c:	8f 7e       	andi	r24, 0xEF	; 239
 75e:	8b b9       	out	0x0b, r24	; 11
 760:	8b b1       	in	r24, 0x0b	; 11
 762:	88 60       	ori	r24, 0x08	; 8
 764:	8b b9       	out	0x0b, r24	; 11
 766:	87 b1       	in	r24, 0x07	; 7
 768:	8d 7f       	andi	r24, 0xFD	; 253
 76a:	87 b9       	out	0x07, r24	; 7
 76c:	87 b1       	in	r24, 0x07	; 7
 76e:	8b 7f       	andi	r24, 0xFB	; 251
 770:	87 b9       	out	0x07, r24	; 7
 772:	87 b1       	in	r24, 0x07	; 7
 774:	87 7f       	andi	r24, 0xF7	; 247
 776:	87 b9       	out	0x07, r24	; 7
 778:	87 b1       	in	r24, 0x07	; 7
 77a:	8f 7e       	andi	r24, 0xEF	; 239
 77c:	87 b9       	out	0x07, r24	; 7
 77e:	8b b1       	in	r24, 0x0b	; 11
 780:	80 62       	ori	r24, 0x20	; 32
 782:	8b b9       	out	0x0b, r24	; 11
 784:	00 c0       	rjmp	.+0      	; 0x786 <lcd_read+0x38>
 786:	31 99       	sbic	0x06, 1	; 6
 788:	02 c0       	rjmp	.+4      	; 0x78e <lcd_read+0x40>
 78a:	80 e0       	ldi	r24, 0x00	; 0
 78c:	01 c0       	rjmp	.+2      	; 0x790 <lcd_read+0x42>
 78e:	80 e1       	ldi	r24, 0x10	; 16
 790:	32 99       	sbic	0x06, 2	; 6
 792:	80 62       	ori	r24, 0x20	; 32
 794:	33 99       	sbic	0x06, 3	; 6
 796:	80 64       	ori	r24, 0x40	; 64
 798:	34 99       	sbic	0x06, 4	; 6
 79a:	80 68       	ori	r24, 0x80	; 128
 79c:	9b b1       	in	r25, 0x0b	; 11
 79e:	9f 7d       	andi	r25, 0xDF	; 223
 7a0:	9b b9       	out	0x0b, r25	; 11
 7a2:	00 c0       	rjmp	.+0      	; 0x7a4 <lcd_read+0x56>
 7a4:	9b b1       	in	r25, 0x0b	; 11
 7a6:	90 62       	ori	r25, 0x20	; 32
 7a8:	9b b9       	out	0x0b, r25	; 11
 7aa:	00 c0       	rjmp	.+0      	; 0x7ac <lcd_read+0x5e>
 7ac:	31 99       	sbic	0x06, 1	; 6
 7ae:	81 60       	ori	r24, 0x01	; 1
 7b0:	32 99       	sbic	0x06, 2	; 6
 7b2:	82 60       	ori	r24, 0x02	; 2
 7b4:	33 99       	sbic	0x06, 3	; 6
 7b6:	84 60       	ori	r24, 0x04	; 4
 7b8:	34 99       	sbic	0x06, 4	; 6
 7ba:	88 60       	ori	r24, 0x08	; 8
 7bc:	9b b1       	in	r25, 0x0b	; 11
 7be:	9f 7d       	andi	r25, 0xDF	; 223
 7c0:	9b b9       	out	0x0b, r25	; 11
 7c2:	08 95       	ret

Disassembly of section .text.lcd_waitbusy:

00000986 <lcd_waitbusy>:
 986:	80 e0       	ldi	r24, 0x00	; 0
 988:	0e 94 a7 03 	call	0x74e	; 0x74e <lcd_read>
 98c:	88 23       	and	r24, r24
 98e:	dc f3       	brlt	.-10     	; 0x986 <lcd_waitbusy>
 990:	88 e0       	ldi	r24, 0x08	; 8
 992:	90 e0       	ldi	r25, 0x00	; 0
 994:	01 97       	sbiw	r24, 0x01	; 1
 996:	f1 f7       	brne	.-4      	; 0x994 <lcd_waitbusy+0xe>
 998:	80 e0       	ldi	r24, 0x00	; 0
 99a:	0e 94 a7 03 	call	0x74e	; 0x74e <lcd_read>
 99e:	08 95       	ret

Disassembly of section .text.lcd_command:

000009d0 <lcd_command>:
 9d0:	cf 93       	push	r28
 9d2:	c8 2f       	mov	r28, r24
 9d4:	0e 94 c3 04 	call	0x986	; 0x986 <lcd_waitbusy>
 9d8:	60 e0       	ldi	r22, 0x00	; 0
 9da:	8c 2f       	mov	r24, r28
 9dc:	0e 94 a7 02 	call	0x54e	; 0x54e <lcd_write>
 9e0:	cf 91       	pop	r28
 9e2:	08 95       	ret

Disassembly of section .text.lcd_gotoxy:

000009e4 <lcd_gotoxy>:
 9e4:	61 11       	cpse	r22, r1
 9e6:	04 c0       	rjmp	.+8      	; 0x9f0 <lcd_gotoxy+0xc>
 9e8:	80 58       	subi	r24, 0x80	; 128
 9ea:	0e 94 e8 04 	call	0x9d0	; 0x9d0 <lcd_command>
 9ee:	08 95       	ret
 9f0:	80 54       	subi	r24, 0x40	; 64
 9f2:	0e 94 e8 04 	call	0x9d0	; 0x9d0 <lcd_command>
 9f6:	08 95       	ret

Disassembly of section .text.lcd_clrscr:

00000a2a <lcd_clrscr>:
/*************************************************************************
Clear display and set cursor to home position
*************************************************************************/
void lcd_clrscr(void)
{
    lcd_command(1<<LCD_CLR);
 a2a:	81 e0       	ldi	r24, 0x01	; 1
 a2c:	0e 94 e8 04 	call	0x9d0	; 0x9d0 <lcd_command>
 a30:	08 95       	ret

Disassembly of section .text.lcd_home:

00000a32 <lcd_home>:
/*************************************************************************
Set cursor to home position
*************************************************************************/
void lcd_home(void)
{
    lcd_command(1<<LCD_HOME);
 a32:	82 e0       	ldi	r24, 0x02	; 2
 a34:	0e 94 e8 04 	call	0x9d0	; 0x9d0 <lcd_command>
 a38:	08 95       	ret

Disassembly of section .text.lcd_putc:

00000910 <lcd_putc>:
/*************************************************************************
*************************************************************************/
int lcd_getxy(void)
{
    return lcd_waitbusy();
}
 910:	cf 93       	push	r28
 912:	c8 2f       	mov	r28, r24
 914:	0e 94 c3 04 	call	0x986	; 0x986 <lcd_waitbusy>
 918:	ca 30       	cpi	r28, 0x0A	; 10
 91a:	49 f4       	brne	.+18     	; 0x92e <lcd_putc+0x1e>
 91c:	80 34       	cpi	r24, 0x40	; 64
 91e:	10 f4       	brcc	.+4      	; 0x924 <lcd_putc+0x14>
 920:	80 e4       	ldi	r24, 0x40	; 64
 922:	01 c0       	rjmp	.+2      	; 0x926 <lcd_putc+0x16>
 924:	80 e0       	ldi	r24, 0x00	; 0
 926:	80 58       	subi	r24, 0x80	; 128
 928:	0e 94 e8 04 	call	0x9d0	; 0x9d0 <lcd_command>
 92c:	04 c0       	rjmp	.+8      	; 0x936 <lcd_putc+0x26>
 92e:	61 e0       	ldi	r22, 0x01	; 1
 930:	8c 2f       	mov	r24, r28
 932:	0e 94 a7 02 	call	0x54e	; 0x54e <lcd_write>
 936:	cf 91       	pop	r28
 938:	08 95       	ret

Disassembly of section .text.lcd_puts:

000008dc <lcd_puts>:
 8dc:	cf 92       	push	r12
 8de:	df 92       	push	r13
 8e0:	ef 92       	push	r14
 8e2:	a8 2f       	mov	r26, r24
 8e4:	cb 01       	movw	r24, r22
 8e6:	04 c0       	rjmp	.+8      	; 0x8f0 <lcd_puts+0x14>
 8e8:	0e 94 88 04 	call	0x910	; 0x910 <lcd_putc>
 8ec:	ae 2d       	mov	r26, r14
 8ee:	c6 01       	movw	r24, r12
 8f0:	6c 01       	movw	r12, r24
 8f2:	ea 2e       	mov	r14, r26
 8f4:	2f ef       	ldi	r18, 0xFF	; 255
 8f6:	c2 1a       	sub	r12, r18
 8f8:	d2 0a       	sbc	r13, r18
 8fa:	e2 0a       	sbc	r14, r18
 8fc:	fc 01       	movw	r30, r24
 8fe:	84 91       	lpm	r24, Z
 900:	a7 fd       	sbrc	r26, 7
 902:	80 81       	ld	r24, Z
 904:	81 11       	cpse	r24, r1
 906:	f0 cf       	rjmp	.-32     	; 0x8e8 <lcd_puts+0xc>
 908:	ef 90       	pop	r14
 90a:	df 90       	pop	r13
 90c:	cf 90       	pop	r12
 90e:	08 95       	ret

Disassembly of section .text.lcd_init:

00000626 <lcd_init>:
 626:	1f 93       	push	r17
 628:	cf 93       	push	r28
 62a:	df 93       	push	r29
 62c:	18 2f       	mov	r17, r24
 62e:	8a b1       	in	r24, 0x0a	; 10
 630:	80 61       	ori	r24, 0x10	; 16
 632:	8a b9       	out	0x0a, r24	; 10
 634:	8a b1       	in	r24, 0x0a	; 10
 636:	88 60       	ori	r24, 0x08	; 8
 638:	8a b9       	out	0x0a, r24	; 10
 63a:	8a b1       	in	r24, 0x0a	; 10
 63c:	80 62       	ori	r24, 0x20	; 32
 63e:	8a b9       	out	0x0a, r24	; 10
 640:	87 b1       	in	r24, 0x07	; 7
 642:	82 60       	ori	r24, 0x02	; 2
 644:	87 b9       	out	0x07, r24	; 7
 646:	87 b1       	in	r24, 0x07	; 7
 648:	84 60       	ori	r24, 0x04	; 4
 64a:	87 b9       	out	0x07, r24	; 7
 64c:	87 b1       	in	r24, 0x07	; 7
 64e:	88 60       	ori	r24, 0x08	; 8
 650:	87 b9       	out	0x07, r24	; 7
 652:	87 b1       	in	r24, 0x07	; 7
 654:	80 61       	ori	r24, 0x10	; 16
 656:	87 b9       	out	0x07, r24	; 7
 658:	80 e0       	ldi	r24, 0x00	; 0
 65a:	9a ef       	ldi	r25, 0xFA	; 250
 65c:	01 97       	sbiw	r24, 0x01	; 1
 65e:	f1 f7       	brne	.-4      	; 0x65c <lcd_init+0x36>
 660:	88 b1       	in	r24, 0x08	; 8
 662:	84 60       	ori	r24, 0x04	; 4
 664:	88 b9       	out	0x08, r24	; 8
 666:	88 b1       	in	r24, 0x08	; 8
 668:	82 60       	ori	r24, 0x02	; 2
 66a:	88 b9       	out	0x08, r24	; 8
 66c:	0e 94 06 05 	call	0xa0c	; 0xa0c <toggle_e>
 670:	80 e0       	ldi	r24, 0x00	; 0
 672:	9e e4       	ldi	r25, 0x4E	; 78
 674:	01 97       	sbiw	r24, 0x01	; 1
 676:	f1 f7       	brne	.-4      	; 0x674 <lcd_init+0x4e>
 678:	0e 94 06 05 	call	0xa0c	; 0xa0c <toggle_e>
 67c:	c0 e0       	ldi	r28, 0x00	; 0
 67e:	d1 e0       	ldi	r29, 0x01	; 1
 680:	ce 01       	movw	r24, r28
 682:	01 97       	sbiw	r24, 0x01	; 1
 684:	f1 f7       	brne	.-4      	; 0x682 <lcd_init+0x5c>
 686:	0e 94 06 05 	call	0xa0c	; 0xa0c <toggle_e>
 68a:	ce 01       	movw	r24, r28
 68c:	01 97       	sbiw	r24, 0x01	; 1
 68e:	f1 f7       	brne	.-4      	; 0x68c <lcd_init+0x66>
 690:	88 b1       	in	r24, 0x08	; 8
 692:	8d 7f       	andi	r24, 0xFD	; 253
 694:	88 b9       	out	0x08, r24	; 8
 696:	0e 94 06 05 	call	0xa0c	; 0xa0c <toggle_e>
 69a:	21 97       	sbiw	r28, 0x01	; 1
 69c:	f1 f7       	brne	.-4      	; 0x69a <lcd_init+0x74>
 69e:	88 e2       	ldi	r24, 0x28	; 40
 6a0:	0e 94 e8 04 	call	0x9d0	; 0x9d0 <lcd_command>
 6a4:	88 e0       	ldi	r24, 0x08	; 8
 6a6:	0e 94 e8 04 	call	0x9d0	; 0x9d0 <lcd_command>
 6aa:	86 e0       	ldi	r24, 0x06	; 6
 6ac:	0e 94 e8 04 	call	0x9d0	; 0x9d0 <lcd_command>
 6b0:	81 2f       	mov	r24, r17
 6b2:	0e 94 e8 04 	call	0x9d0	; 0x9d0 <lcd_command>
 6b6:	df 91       	pop	r29
 6b8:	cf 91       	pop	r28
 6ba:	1f 91       	pop	r17
 6bc:	08 95       	ret

Disassembly of section .text.UART_init:

0000093a <UART_init>:
	if(UCSR0A&(1<<7)){			//si el bit7 del registro UCSR0A se ha puesto a 1
		return UDR0;			//devuelve el dato almacenado en el registro UDR0
	}
	else
	return 0;
}
 93a:	8a b1       	in	r24, 0x0a	; 10
 93c:	82 60       	ori	r24, 0x02	; 2
 93e:	8a b9       	out	0x0a, r24	; 10
 940:	8a b1       	in	r24, 0x0a	; 10
 942:	8e 7f       	andi	r24, 0xFE	; 254
 944:	8a b9       	out	0x0a, r24	; 10
 946:	10 92 c0 00 	sts	0x00C0, r1	; 0x8000c0 <__TEXT_REGION_LENGTH__+0x7f80c0>
 94a:	88 e9       	ldi	r24, 0x98	; 152
 94c:	80 93 c1 00 	sts	0x00C1, r24	; 0x8000c1 <__TEXT_REGION_LENGTH__+0x7f80c1>
 950:	86 e0       	ldi	r24, 0x06	; 6
 952:	80 93 c2 00 	sts	0x00C2, r24	; 0x8000c2 <__TEXT_REGION_LENGTH__+0x7f80c2>
 956:	83 e3       	ldi	r24, 0x33	; 51
 958:	90 e0       	ldi	r25, 0x00	; 0
 95a:	90 93 c5 00 	sts	0x00C5, r25	; 0x8000c5 <__TEXT_REGION_LENGTH__+0x7f80c5>
 95e:	80 93 c4 00 	sts	0x00C4, r24	; 0x8000c4 <__TEXT_REGION_LENGTH__+0x7f80c4>
 962:	08 95       	ret

Disassembly of section .text.UART_write:

00000a1c <UART_write>:

void UART_write(unsigned char caracter){
	while(!(UCSR0A&(1<<5)));    // mientras el registro UDR0 esté lleno espera
 a1c:	90 91 c0 00 	lds	r25, 0x00C0	; 0x8000c0 <__TEXT_REGION_LENGTH__+0x7f80c0>
 a20:	95 ff       	sbrs	r25, 5
 a22:	fc cf       	rjmp	.-8      	; 0xa1c <UART_write>
	UDR0 = caracter;            //cuando el el registro UDR0 está vacio se envia el caracter
 a24:	80 93 c6 00 	sts	0x00C6, r24	; 0x8000c6 <__TEXT_REGION_LENGTH__+0x7f80c6>
 a28:	08 95       	ret

Disassembly of section .text.ultraSonicoInit:

00000964 <ultraSonicoInit>:
	if(UCSR0A&(1<<7)){			//si el bit7 del registro UCSR0A se ha puesto a 1
		return UDR0;			//devuelve el dato almacenado en el registro UDR0
	}
	else
	return 0;
}
 964:	8a b1       	in	r24, 0x0a	; 10
 966:	80 64       	ori	r24, 0x40	; 64
 968:	8a b9       	out	0x0a, r24	; 10
 96a:	8a b1       	in	r24, 0x0a	; 10
 96c:	8f 77       	andi	r24, 0x7F	; 127
 96e:	8a b9       	out	0x0a, r24	; 10
 970:	8b b1       	in	r24, 0x0b	; 11
 972:	8f 7b       	andi	r24, 0xBF	; 191
 974:	8b b9       	out	0x0b, r24	; 11
 976:	10 92 b0 00 	sts	0x00B0, r1	; 0x8000b0 <__TEXT_REGION_LENGTH__+0x7f80b0>
 97a:	e1 eb       	ldi	r30, 0xB1	; 177
 97c:	f0 e0       	ldi	r31, 0x00	; 0
 97e:	80 81       	ld	r24, Z
 980:	83 60       	ori	r24, 0x03	; 3
 982:	80 83       	st	Z, r24
 984:	08 95       	ret

Disassembly of section .text.servoInit:

00000898 <servoInit>:
 898:	84 b1       	in	r24, 0x04	; 4
 89a:	82 60       	ori	r24, 0x02	; 2
 89c:	84 b9       	out	0x04, r24	; 4
 89e:	10 92 85 00 	sts	0x0085, r1	; 0x800085 <__TEXT_REGION_LENGTH__+0x7f8085>
 8a2:	10 92 84 00 	sts	0x0084, r1	; 0x800084 <__TEXT_REGION_LENGTH__+0x7f8084>
 8a6:	8f e1       	ldi	r24, 0x1F	; 31
 8a8:	9e e4       	ldi	r25, 0x4E	; 78
 8aa:	90 93 87 00 	sts	0x0087, r25	; 0x800087 <__TEXT_REGION_LENGTH__+0x7f8087>
 8ae:	80 93 86 00 	sts	0x0086, r24	; 0x800086 <__TEXT_REGION_LENGTH__+0x7f8086>
 8b2:	e0 e8       	ldi	r30, 0x80	; 128
 8b4:	f0 e0       	ldi	r31, 0x00	; 0
 8b6:	80 e8       	ldi	r24, 0x80	; 128
 8b8:	80 83       	st	Z, r24
 8ba:	80 81       	ld	r24, Z
 8bc:	82 60       	ori	r24, 0x02	; 2
 8be:	80 83       	st	Z, r24
 8c0:	e1 e8       	ldi	r30, 0x81	; 129
 8c2:	f0 e0       	ldi	r31, 0x00	; 0
 8c4:	88 e1       	ldi	r24, 0x18	; 24
 8c6:	80 83       	st	Z, r24
 8c8:	80 81       	ld	r24, Z
 8ca:	82 60       	ori	r24, 0x02	; 2
 8cc:	80 83       	st	Z, r24
 8ce:	84 e1       	ldi	r24, 0x14	; 20
 8d0:	95 e0       	ldi	r25, 0x05	; 5
 8d2:	90 93 89 00 	sts	0x0089, r25	; 0x800089 <__TEXT_REGION_LENGTH__+0x7f8089>
 8d6:	80 93 88 00 	sts	0x0088, r24	; 0x800088 <__TEXT_REGION_LENGTH__+0x7f8088>
 8da:	08 95       	ret

Disassembly of section .text.servoAngle:

000009ba <servoAngle>:
 9ba:	26 e1       	ldi	r18, 0x16	; 22
 9bc:	82 9f       	mul	r24, r18
 9be:	c0 01       	movw	r24, r0
 9c0:	11 24       	eor	r1, r1
 9c2:	8c 5e       	subi	r24, 0xEC	; 236
 9c4:	9a 4f       	sbci	r25, 0xFA	; 250
 9c6:	90 93 89 00 	sts	0x0089, r25	; 0x800089 <__TEXT_REGION_LENGTH__+0x7f8089>
 9ca:	80 93 88 00 	sts	0x0088, r24	; 0x800088 <__TEXT_REGION_LENGTH__+0x7f8088>
 9ce:	08 95       	ret

Disassembly of section .text.interrupt_TIMER0_init:

000009f8 <interrupt_TIMER0_init>:
 9f8:	f8 94       	cli
 9fa:	85 e0       	ldi	r24, 0x05	; 5
 9fc:	85 bd       	out	0x25, r24	; 37
 9fe:	81 e0       	ldi	r24, 0x01	; 1
 a00:	80 93 6e 00 	sts	0x006E, r24	; 0x80006e <__TEXT_REGION_LENGTH__+0x7f806e>
 a04:	78 94       	sei
 a06:	8c e0       	ldi	r24, 0x0C	; 12
 a08:	86 bd       	out	0x26, r24	; 38
 a0a:	08 95       	ret

Disassembly of section .text.__vector_16:

000006be <__vector_16>:
 6be:	1f 92       	push	r1
 6c0:	0f 92       	push	r0
 6c2:	0f b6       	in	r0, 0x3f	; 63
 6c4:	0f 92       	push	r0
 6c6:	11 24       	eor	r1, r1
 6c8:	2f 93       	push	r18
 6ca:	3f 93       	push	r19
 6cc:	4f 93       	push	r20
 6ce:	5f 93       	push	r21
 6d0:	6f 93       	push	r22
 6d2:	7f 93       	push	r23
 6d4:	8f 93       	push	r24
 6d6:	9f 93       	push	r25
 6d8:	af 93       	push	r26
 6da:	bf 93       	push	r27
 6dc:	ef 93       	push	r30
 6de:	ff 93       	push	r31
 6e0:	80 91 00 01 	lds	r24, 0x0100	; 0x800100 <__DATA_REGION_ORIGIN__>
 6e4:	88 23       	and	r24, r24
 6e6:	11 f1       	breq	.+68     	; 0x72c <__vector_16+0x6e>
 6e8:	80 91 01 01 	lds	r24, 0x0101	; 0x800101 <direccion>
 6ec:	88 23       	and	r24, r24
 6ee:	71 f0       	breq	.+28     	; 0x70c <__vector_16+0x4e>
 6f0:	80 91 02 01 	lds	r24, 0x0102	; 0x800102 <angulo>
 6f4:	0e 94 dd 04 	call	0x9ba	; 0x9ba <servoAngle>
 6f8:	80 91 02 01 	lds	r24, 0x0102	; 0x800102 <angulo>
 6fc:	8f 5f       	subi	r24, 0xFF	; 255
 6fe:	80 93 02 01 	sts	0x0102, r24	; 0x800102 <angulo>
 702:	84 3b       	cpi	r24, 0xB4	; 180
 704:	89 f4       	brne	.+34     	; 0x728 <__vector_16+0x6a>
 706:	10 92 01 01 	sts	0x0101, r1	; 0x800101 <direccion>
 70a:	0e c0       	rjmp	.+28     	; 0x728 <__vector_16+0x6a>
 70c:	80 91 02 01 	lds	r24, 0x0102	; 0x800102 <angulo>
 710:	0e 94 dd 04 	call	0x9ba	; 0x9ba <servoAngle>
 714:	80 91 02 01 	lds	r24, 0x0102	; 0x800102 <angulo>
 718:	81 50       	subi	r24, 0x01	; 1
 71a:	80 93 02 01 	sts	0x0102, r24	; 0x800102 <angulo>
 71e:	81 11       	cpse	r24, r1
 720:	03 c0       	rjmp	.+6      	; 0x728 <__vector_16+0x6a>
 722:	81 e0       	ldi	r24, 0x01	; 1
 724:	80 93 01 01 	sts	0x0101, r24	; 0x800101 <direccion>
 728:	8c e0       	ldi	r24, 0x0C	; 12
 72a:	86 bd       	out	0x26, r24	; 38
 72c:	ff 91       	pop	r31
 72e:	ef 91       	pop	r30
 730:	bf 91       	pop	r27
 732:	af 91       	pop	r26
 734:	9f 91       	pop	r25
 736:	8f 91       	pop	r24
 738:	7f 91       	pop	r23
 73a:	6f 91       	pop	r22
 73c:	5f 91       	pop	r21
 73e:	4f 91       	pop	r20
 740:	3f 91       	pop	r19
 742:	2f 91       	pop	r18
 744:	0f 90       	pop	r0
 746:	0f be       	out	0x3f, r0	; 63
 748:	0f 90       	pop	r0
 74a:	1f 90       	pop	r1
 74c:	18 95       	reti

Disassembly of section .text.main:

0000039a <main>:
 39a:	0e 94 9d 04 	call	0x93a	; 0x93a <UART_init>
 39e:	0e 94 4c 04 	call	0x898	; 0x898 <servoInit>
 3a2:	0e 94 b2 04 	call	0x964	; 0x964 <ultraSonicoInit>
 3a6:	0e 94 fc 04 	call	0x9f8	; 0x9f8 <interrupt_TIMER0_init>
 3aa:	8c e0       	ldi	r24, 0x0C	; 12
 3ac:	0e 94 13 03 	call	0x626	; 0x626 <lcd_init>
 3b0:	0e 94 1b 04 	call	0x836	; 0x836 <kbrd_init>
 3b4:	0e 94 19 05 	call	0xa32	; 0xa32 <lcd_home>
 3b8:	0e 94 15 05 	call	0xa2a	; 0xa2a <lcd_clrscr>
 3bc:	0e 94 19 05 	call	0xa32	; 0xa32 <lcd_home>
 3c0:	63 ed       	ldi	r22, 0xD3	; 211
 3c2:	70 e0       	ldi	r23, 0x00	; 0
 3c4:	80 e0       	ldi	r24, 0x00	; 0
 3c6:	0e 94 6e 04 	call	0x8dc	; 0x8dc <lcd_puts>
 3ca:	61 e0       	ldi	r22, 0x01	; 1
 3cc:	80 e0       	ldi	r24, 0x00	; 0
 3ce:	0e 94 f2 04 	call	0x9e4	; 0x9e4 <lcd_gotoxy>
 3d2:	61 ee       	ldi	r22, 0xE1	; 225
 3d4:	70 e0       	ldi	r23, 0x00	; 0
 3d6:	80 e0       	ldi	r24, 0x00	; 0
 3d8:	0e 94 6e 04 	call	0x8dc	; 0x8dc <lcd_puts>
 3dc:	2f ef       	ldi	r18, 0xFF	; 255
 3de:	37 ea       	ldi	r19, 0xA7	; 167
 3e0:	81 e6       	ldi	r24, 0x61	; 97
 3e2:	21 50       	subi	r18, 0x01	; 1
 3e4:	30 40       	sbci	r19, 0x00	; 0
 3e6:	80 40       	sbci	r24, 0x00	; 0
 3e8:	e1 f7       	brne	.-8      	; 0x3e2 <main+0x48>
 3ea:	00 c0       	rjmp	.+0      	; 0x3ec <main+0x52>
 3ec:	00 00       	nop
 3ee:	0e 94 15 05 	call	0xa2a	; 0xa2a <lcd_clrscr>
 3f2:	80 e0       	ldi	r24, 0x00	; 0
 3f4:	0e 94 dd 04 	call	0x9ba	; 0x9ba <servoAngle>
 3f8:	80 91 00 01 	lds	r24, 0x0100	; 0x800100 <__DATA_REGION_ORIGIN__>
 3fc:	81 11       	cpse	r24, r1
 3fe:	8a c0       	rjmp	.+276    	; 0x514 <__EEPROM_REGION_LENGTH__+0x114>
 400:	61 ef       	ldi	r22, 0xF1	; 241
 402:	70 e0       	ldi	r23, 0x00	; 0
 404:	80 e0       	ldi	r24, 0x00	; 0
 406:	0e 94 6e 04 	call	0x8dc	; 0x8dc <lcd_puts>
 40a:	61 e0       	ldi	r22, 0x01	; 1
 40c:	80 e0       	ldi	r24, 0x00	; 0
 40e:	0e 94 f2 04 	call	0x9e4	; 0x9e4 <lcd_gotoxy>
 412:	61 e0       	ldi	r22, 0x01	; 1
 414:	71 e0       	ldi	r23, 0x01	; 1
 416:	80 e0       	ldi	r24, 0x00	; 0
 418:	0e 94 6e 04 	call	0x8dc	; 0x8dc <lcd_puts>
 41c:	0e 94 b6 00 	call	0x16c	; 0x16c <kbrd_read>
 420:	8d 33       	cpi	r24, 0x3D	; 61
 422:	11 f0       	breq	.+4      	; 0x428 <__EEPROM_REGION_LENGTH__+0x28>
 424:	c8 2f       	mov	r28, r24
 426:	01 c0       	rjmp	.+2      	; 0x42a <__EEPROM_REGION_LENGTH__+0x2a>
 428:	ce e4       	ldi	r28, 0x4E	; 78
 42a:	8e 32       	cpi	r24, 0x2E	; 46
 42c:	09 f4       	brne	.+2      	; 0x430 <__EEPROM_REGION_LENGTH__+0x30>
 42e:	c9 e4       	ldi	r28, 0x49	; 73
 430:	91 e0       	ldi	r25, 0x01	; 1
 432:	82 33       	cpi	r24, 0x32	; 50
 434:	09 f0       	breq	.+2      	; 0x438 <__EEPROM_REGION_LENGTH__+0x38>
 436:	90 e0       	ldi	r25, 0x00	; 0
 438:	21 e0       	ldi	r18, 0x01	; 1
 43a:	8e 32       	cpi	r24, 0x2E	; 46
 43c:	09 f4       	brne	.+2      	; 0x440 <__EEPROM_REGION_LENGTH__+0x40>
 43e:	20 e0       	ldi	r18, 0x00	; 0
 440:	92 13       	cpse	r25, r18
 442:	ec cf       	rjmp	.-40     	; 0x41c <__EEPROM_REGION_LENGTH__+0x1c>
 444:	0e 94 15 05 	call	0xa2a	; 0xa2a <lcd_clrscr>
 448:	0e 94 19 05 	call	0xa32	; 0xa32 <lcd_home>
 44c:	60 e1       	ldi	r22, 0x10	; 16
 44e:	71 e0       	ldi	r23, 0x01	; 1
 450:	80 e0       	ldi	r24, 0x00	; 0
 452:	0e 94 6e 04 	call	0x8dc	; 0x8dc <lcd_puts>
 456:	01 e0       	ldi	r16, 0x01	; 1
 458:	10 e0       	ldi	r17, 0x00	; 0
 45a:	0e 94 b6 00 	call	0x16c	; 0x16c <kbrd_read>
 45e:	8b 97       	sbiw	r24, 0x2b	; 43
 460:	31 f4       	brne	.+12     	; 0x46e <__EEPROM_REGION_LENGTH__+0x6e>
 462:	09 30       	cpi	r16, 0x09	; 9
 464:	11 05       	cpc	r17, r1
 466:	1c f4       	brge	.+6      	; 0x46e <__EEPROM_REGION_LENGTH__+0x6e>
 468:	0f 5f       	subi	r16, 0xFF	; 255
 46a:	1f 4f       	sbci	r17, 0xFF	; 255
 46c:	09 c0       	rjmp	.+18     	; 0x480 <__EEPROM_REGION_LENGTH__+0x80>
 46e:	0e 94 b6 00 	call	0x16c	; 0x16c <kbrd_read>
 472:	8d 97       	sbiw	r24, 0x2d	; 45
 474:	29 f4       	brne	.+10     	; 0x480 <__EEPROM_REGION_LENGTH__+0x80>
 476:	02 30       	cpi	r16, 0x02	; 2
 478:	11 05       	cpc	r17, r1
 47a:	14 f0       	brlt	.+4      	; 0x480 <__EEPROM_REGION_LENGTH__+0x80>
 47c:	01 50       	subi	r16, 0x01	; 1
 47e:	11 09       	sbc	r17, r1
 480:	61 e0       	ldi	r22, 0x01	; 1
 482:	80 e0       	ldi	r24, 0x00	; 0
 484:	0e 94 f2 04 	call	0x9e4	; 0x9e4 <lcd_gotoxy>
 488:	61 e2       	ldi	r22, 0x21	; 33
 48a:	71 e0       	ldi	r23, 0x01	; 1
 48c:	80 e0       	ldi	r24, 0x00	; 0
 48e:	0e 94 6e 04 	call	0x8dc	; 0x8dc <lcd_puts>
 492:	d0 e3       	ldi	r29, 0x30	; 48
 494:	d0 0f       	add	r29, r16
 496:	8d 2f       	mov	r24, r29
 498:	0e 94 88 04 	call	0x910	; 0x910 <lcd_putc>
 49c:	67 e2       	ldi	r22, 0x27	; 39
 49e:	71 e0       	ldi	r23, 0x01	; 1
 4a0:	80 e0       	ldi	r24, 0x00	; 0
 4a2:	0e 94 6e 04 	call	0x8dc	; 0x8dc <lcd_puts>
 4a6:	0e 94 b6 00 	call	0x16c	; 0x16c <kbrd_read>
 4aa:	82 33       	cpi	r24, 0x32	; 50
 4ac:	b1 f6       	brne	.-84     	; 0x45a <__EEPROM_REGION_LENGTH__+0x5a>
 4ae:	0e 94 15 05 	call	0xa2a	; 0xa2a <lcd_clrscr>
 4b2:	0e 94 19 05 	call	0xa32	; 0xa32 <lcd_home>
 4b6:	6a e2       	ldi	r22, 0x2A	; 42
 4b8:	71 e0       	ldi	r23, 0x01	; 1
 4ba:	80 e0       	ldi	r24, 0x00	; 0
 4bc:	0e 94 6e 04 	call	0x8dc	; 0x8dc <lcd_puts>
 4c0:	81 e3       	ldi	r24, 0x31	; 49
 4c2:	0e 94 0e 05 	call	0xa1c	; 0xa1c <UART_write>
 4c6:	8d 2f       	mov	r24, r29
 4c8:	0e 94 0e 05 	call	0xa1c	; 0xa1c <UART_write>
 4cc:	8c 2f       	mov	r24, r28
 4ce:	0e 94 0e 05 	call	0xa1c	; 0xa1c <UART_write>
 4d2:	9f ef       	ldi	r25, 0xFF	; 255
 4d4:	23 ed       	ldi	r18, 0xD3	; 211
 4d6:	30 e3       	ldi	r19, 0x30	; 48
 4d8:	91 50       	subi	r25, 0x01	; 1
 4da:	20 40       	sbci	r18, 0x00	; 0
 4dc:	30 40       	sbci	r19, 0x00	; 0
 4de:	e1 f7       	brne	.-8      	; 0x4d8 <__EEPROM_REGION_LENGTH__+0xd8>
 4e0:	00 c0       	rjmp	.+0      	; 0x4e2 <__EEPROM_REGION_LENGTH__+0xe2>
 4e2:	00 00       	nop
 4e4:	80 91 c0 00 	lds	r24, 0x00C0	; 0x8000c0 <__TEXT_REGION_LENGTH__+0x7f80c0>
 4e8:	0e 94 15 05 	call	0xa2a	; 0xa2a <lcd_clrscr>
 4ec:	0e 94 19 05 	call	0xa32	; 0xa32 <lcd_home>
 4f0:	6b e3       	ldi	r22, 0x3B	; 59
 4f2:	71 e0       	ldi	r23, 0x01	; 1
 4f4:	80 e0       	ldi	r24, 0x00	; 0
 4f6:	0e 94 6e 04 	call	0x8dc	; 0x8dc <lcd_puts>
 4fa:	8f ef       	ldi	r24, 0xFF	; 255
 4fc:	99 e6       	ldi	r25, 0x69	; 105
 4fe:	28 e1       	ldi	r18, 0x18	; 24
 500:	81 50       	subi	r24, 0x01	; 1
 502:	90 40       	sbci	r25, 0x00	; 0
 504:	20 40       	sbci	r18, 0x00	; 0
 506:	e1 f7       	brne	.-8      	; 0x500 <__EEPROM_REGION_LENGTH__+0x100>
 508:	00 c0       	rjmp	.+0      	; 0x50a <__EEPROM_REGION_LENGTH__+0x10a>
 50a:	00 00       	nop
 50c:	81 e0       	ldi	r24, 0x01	; 1
 50e:	80 93 00 01 	sts	0x0100, r24	; 0x800100 <__DATA_REGION_ORIGIN__>
 512:	72 cf       	rjmp	.-284    	; 0x3f8 <main+0x5e>
 514:	0e 94 15 05 	call	0xa2a	; 0xa2a <lcd_clrscr>
 518:	0e 94 19 05 	call	0xa32	; 0xa32 <lcd_home>
 51c:	6c e4       	ldi	r22, 0x4C	; 76
 51e:	71 e0       	ldi	r23, 0x01	; 1
 520:	80 e0       	ldi	r24, 0x00	; 0
 522:	0e 94 6e 04 	call	0x8dc	; 0x8dc <lcd_puts>
 526:	61 e0       	ldi	r22, 0x01	; 1
 528:	80 e0       	ldi	r24, 0x00	; 0
 52a:	0e 94 f2 04 	call	0x9e4	; 0x9e4 <lcd_gotoxy>
 52e:	6d e5       	ldi	r22, 0x5D	; 93
 530:	71 e0       	ldi	r23, 0x01	; 1
 532:	80 e0       	ldi	r24, 0x00	; 0
 534:	0e 94 6e 04 	call	0x8dc	; 0x8dc <lcd_puts>
 538:	3a ea       	ldi	r19, 0xAA	; 170
 53a:	8b ec       	ldi	r24, 0xCB	; 203
 53c:	9f ed       	ldi	r25, 0xDF	; 223
 53e:	20 e0       	ldi	r18, 0x00	; 0
 540:	31 50       	subi	r19, 0x01	; 1
 542:	80 40       	sbci	r24, 0x00	; 0
 544:	90 40       	sbci	r25, 0x00	; 0
 546:	20 40       	sbci	r18, 0x00	; 0
 548:	d9 f7       	brne	.-10     	; 0x540 <__EEPROM_REGION_LENGTH__+0x140>
 54a:	00 00       	nop
 54c:	55 cf       	rjmp	.-342    	; 0x3f8 <main+0x5e>

Disassembly of section .text.kbrd_init:

00000836 <kbrd_init>:
 void reset_columns(void);

void kbrd_init()
{
	//Column pins are Outputs
	KBRD_C0_DDR |= (1<<KBRD_C0_PIN);
 836:	84 b1       	in	r24, 0x04	; 4
 838:	80 61       	ori	r24, 0x10	; 16
 83a:	84 b9       	out	0x04, r24	; 4
	KBRD_C1_DDR |= (1<<KBRD_C1_PIN);
 83c:	84 b1       	in	r24, 0x04	; 4
 83e:	80 62       	ori	r24, 0x20	; 32
 840:	84 b9       	out	0x04, r24	; 4
	KBRD_C2_DDR |= (1<<KBRD_C2_PIN);
 842:	84 b1       	in	r24, 0x04	; 4
 844:	80 64       	ori	r24, 0x40	; 64
 846:	84 b9       	out	0x04, r24	; 4
	KBRD_C3_DDR |= (1<<KBRD_C3_PIN);
 848:	84 b1       	in	r24, 0x04	; 4
 84a:	80 68       	ori	r24, 0x80	; 128
 84c:	84 b9       	out	0x04, r24	; 4
	
	//Row pins are Inputs
	KBRD_F0_DDR &= ~(1<<KBRD_F0_PIN);
 84e:	84 b1       	in	r24, 0x04	; 4
 850:	8e 7f       	andi	r24, 0xFE	; 254
 852:	84 b9       	out	0x04, r24	; 4
	KBRD_F1_DDR &= ~(1<<KBRD_F1_PIN);
 854:	87 b1       	in	r24, 0x07	; 7
 856:	8e 7f       	andi	r24, 0xFE	; 254
 858:	87 b9       	out	0x07, r24	; 7
	KBRD_F2_DDR &= ~(1<<KBRD_F2_PIN);
 85a:	84 b1       	in	r24, 0x04	; 4
 85c:	8b 7f       	andi	r24, 0xFB	; 251
 85e:	84 b9       	out	0x04, r24	; 4
	KBRD_F3_DDR &= ~(1<<KBRD_F3_PIN);
 860:	84 b1       	in	r24, 0x04	; 4
 862:	87 7f       	andi	r24, 0xF7	; 247
 864:	84 b9       	out	0x04, r24	; 4
	
	
	//enable pull ups on row pins
	KBRD_F0_PORT |= (1<<KBRD_F0_PIN);
 866:	85 b1       	in	r24, 0x05	; 5
 868:	81 60       	ori	r24, 0x01	; 1
 86a:	85 b9       	out	0x05, r24	; 5
	KBRD_F1_PORT |= (1<<KBRD_F1_PIN);
 86c:	88 b1       	in	r24, 0x08	; 8
 86e:	81 60       	ori	r24, 0x01	; 1
 870:	88 b9       	out	0x08, r24	; 8
	KBRD_F2_PORT |= (1<<KBRD_F2_PIN);
 872:	85 b1       	in	r24, 0x05	; 5
 874:	84 60       	ori	r24, 0x04	; 4
 876:	85 b9       	out	0x05, r24	; 5
	KBRD_F3_PORT |= (1<<KBRD_F3_PIN);
 878:	85 b1       	in	r24, 0x05	; 5
 87a:	88 60       	ori	r24, 0x08	; 8
 87c:	85 b9       	out	0x05, r24	; 5
	// Put Ones in Columns
	KBRD_C0_PORT |= (1<<KBRD_C0_PIN);
 87e:	85 b1       	in	r24, 0x05	; 5
 880:	80 61       	ori	r24, 0x10	; 16
 882:	85 b9       	out	0x05, r24	; 5
	KBRD_C1_PORT |= (1<<KBRD_C1_PIN);
 884:	85 b1       	in	r24, 0x05	; 5
 886:	80 62       	ori	r24, 0x20	; 32
 888:	85 b9       	out	0x05, r24	; 5
	KBRD_C2_PORT |= (1<<KBRD_C2_PIN);
 88a:	85 b1       	in	r24, 0x05	; 5
 88c:	80 64       	ori	r24, 0x40	; 64
 88e:	85 b9       	out	0x05, r24	; 5
	KBRD_C3_PORT |= (1<<KBRD_C3_PIN);
 890:	85 b1       	in	r24, 0x05	; 5
 892:	80 68       	ori	r24, 0x80	; 128
 894:	85 b9       	out	0x05, r24	; 5
 896:	08 95       	ret

Disassembly of section .text.activate_column:

000007c4 <activate_column>:
}

//FIXME: 
void activate_column(unsigned char column)
{
	if(column == 0)
 7c4:	81 11       	cpse	r24, r1
 7c6:	0c c0       	rjmp	.+24     	; 0x7e0 <activate_column+0x1c>
	{
		KBRD_C0_PORT &= ~(1<< KBRD_C0_PIN);
 7c8:	95 b1       	in	r25, 0x05	; 5
 7ca:	9f 7e       	andi	r25, 0xEF	; 239
 7cc:	95 b9       	out	0x05, r25	; 5
		KBRD_C1_PORT |= (1<< KBRD_C1_PIN);
 7ce:	95 b1       	in	r25, 0x05	; 5
 7d0:	90 62       	ori	r25, 0x20	; 32
 7d2:	95 b9       	out	0x05, r25	; 5
		KBRD_C2_PORT |= (1<< KBRD_C2_PIN);
 7d4:	95 b1       	in	r25, 0x05	; 5
 7d6:	90 64       	ori	r25, 0x40	; 64
 7d8:	95 b9       	out	0x05, r25	; 5
		KBRD_C3_PORT |= (1<< KBRD_C3_PIN);	
 7da:	95 b1       	in	r25, 0x05	; 5
 7dc:	90 68       	ori	r25, 0x80	; 128
 7de:	95 b9       	out	0x05, r25	; 5
		
	}
	 if(column == 1)
 7e0:	81 30       	cpi	r24, 0x01	; 1
 7e2:	61 f4       	brne	.+24     	; 0x7fc <activate_column+0x38>
	{
		KBRD_C0_PORT |= (1<< KBRD_C0_PIN);
 7e4:	95 b1       	in	r25, 0x05	; 5
 7e6:	90 61       	ori	r25, 0x10	; 16
 7e8:	95 b9       	out	0x05, r25	; 5
		KBRD_C1_PORT &= ~(1<< KBRD_C1_PIN);
 7ea:	95 b1       	in	r25, 0x05	; 5
 7ec:	9f 7d       	andi	r25, 0xDF	; 223
 7ee:	95 b9       	out	0x05, r25	; 5
		KBRD_C2_PORT |= (1<< KBRD_C2_PIN);
 7f0:	95 b1       	in	r25, 0x05	; 5
 7f2:	90 64       	ori	r25, 0x40	; 64
 7f4:	95 b9       	out	0x05, r25	; 5
		KBRD_C3_PORT |= (1<< KBRD_C3_PIN);
 7f6:	95 b1       	in	r25, 0x05	; 5
 7f8:	90 68       	ori	r25, 0x80	; 128
 7fa:	95 b9       	out	0x05, r25	; 5
			
	}
	if(column == 2)
 7fc:	82 30       	cpi	r24, 0x02	; 2
 7fe:	61 f4       	brne	.+24     	; 0x818 <__DATA_REGION_LENGTH__+0x18>
	{
		KBRD_C0_PORT |= (1<< KBRD_C0_PIN);
 800:	95 b1       	in	r25, 0x05	; 5
 802:	90 61       	ori	r25, 0x10	; 16
 804:	95 b9       	out	0x05, r25	; 5
		KBRD_C1_PORT |= (1<< KBRD_C1_PIN);
 806:	95 b1       	in	r25, 0x05	; 5
 808:	90 62       	ori	r25, 0x20	; 32
 80a:	95 b9       	out	0x05, r25	; 5
		KBRD_C2_PORT &= ~(1<< KBRD_C2_PIN);
 80c:	95 b1       	in	r25, 0x05	; 5
 80e:	9f 7b       	andi	r25, 0xBF	; 191
 810:	95 b9       	out	0x05, r25	; 5
		KBRD_C3_PORT |= (1<< KBRD_C3_PIN);
 812:	95 b1       	in	r25, 0x05	; 5
 814:	90 68       	ori	r25, 0x80	; 128
 816:	95 b9       	out	0x05, r25	; 5
			
	}
	//FIXME: completar para un teclado 4x4
	if(column == 3)
 818:	83 30       	cpi	r24, 0x03	; 3
 81a:	61 f4       	brne	.+24     	; 0x834 <__DATA_REGION_LENGTH__+0x34>
	{
		KBRD_C0_PORT |= (1<< KBRD_C0_PIN);
 81c:	85 b1       	in	r24, 0x05	; 5
 81e:	80 61       	ori	r24, 0x10	; 16
 820:	85 b9       	out	0x05, r24	; 5
		KBRD_C1_PORT |= (1<< KBRD_C1_PIN);
 822:	85 b1       	in	r24, 0x05	; 5
 824:	80 62       	ori	r24, 0x20	; 32
 826:	85 b9       	out	0x05, r24	; 5
		KBRD_C2_PORT |= (1<< KBRD_C2_PIN);
 828:	85 b1       	in	r24, 0x05	; 5
 82a:	80 64       	ori	r24, 0x40	; 64
 82c:	85 b9       	out	0x05, r24	; 5
		KBRD_C3_PORT &= ~(1<< KBRD_C3_PIN);
 82e:	85 b1       	in	r24, 0x05	; 5
 830:	8f 77       	andi	r24, 0x7F	; 127
 832:	85 b9       	out	0x05, r24	; 5
 834:	08 95       	ret

Disassembly of section .text.reset_columns:

000009a0 <reset_columns>:


void reset_columns()
{
	
	KBRD_C0_PORT |= (1<< KBRD_C0_PIN);
 9a0:	85 b1       	in	r24, 0x05	; 5
 9a2:	80 61       	ori	r24, 0x10	; 16
 9a4:	85 b9       	out	0x05, r24	; 5
	KBRD_C1_PORT |= (1<< KBRD_C1_PIN);	
 9a6:	85 b1       	in	r24, 0x05	; 5
 9a8:	80 62       	ori	r24, 0x20	; 32
 9aa:	85 b9       	out	0x05, r24	; 5
	KBRD_C2_PORT |= (1<< KBRD_C2_PIN);
 9ac:	85 b1       	in	r24, 0x05	; 5
 9ae:	80 64       	ori	r24, 0x40	; 64
 9b0:	85 b9       	out	0x05, r24	; 5
	KBRD_C3_PORT |= (1<< KBRD_C3_PIN);	
 9b2:	85 b1       	in	r24, 0x05	; 5
 9b4:	80 68       	ori	r24, 0x80	; 128
 9b6:	85 b9       	out	0x05, r24	; 5
 9b8:	08 95       	ret

Disassembly of section .text.kbrd_read:

0000016c <kbrd_read>:
	

}

char kbrd_read(void)
{
 16c:	cf 93       	push	r28
	//reset_columns();
	char tecla='e';
	//verify first column
	activate_column(0);
 16e:	80 e0       	ldi	r24, 0x00	; 0
 170:	0e 94 e2 03 	call	0x7c4	; 0x7c4 <activate_column>
	#else
		//round up by default
		__ticks_dc = (uint32_t)(ceil(fabs(__tmp)));
	#endif

	__builtin_avr_delay_cycles(__ticks_dc);
 174:	2f e7       	ldi	r18, 0x7F	; 127
 176:	88 e3       	ldi	r24, 0x38	; 56
 178:	91 e0       	ldi	r25, 0x01	; 1
 17a:	21 50       	subi	r18, 0x01	; 1
 17c:	80 40       	sbci	r24, 0x00	; 0
 17e:	90 40       	sbci	r25, 0x00	; 0
 180:	e1 f7       	brne	.-8      	; 0x17a <kbrd_read+0xe>
 182:	00 c0       	rjmp	.+0      	; 0x184 <kbrd_read+0x18>
 184:	00 00       	nop

	_delay_ms(KBRD_DELAY);

	switch(KBRD_ROW_MASK_AL())
 186:	83 b1       	in	r24, 0x03	; 3
 188:	90 e0       	ldi	r25, 0x00	; 0
 18a:	8e 6f       	ori	r24, 0xFE	; 254
 18c:	9f 6f       	ori	r25, 0xFF	; 255
 18e:	9c 01       	movw	r18, r24
 190:	20 95       	com	r18
 192:	30 95       	com	r19
 194:	93 b1       	in	r25, 0x03	; 3
 196:	89 2f       	mov	r24, r25
 198:	90 e0       	ldi	r25, 0x00	; 0
 19a:	8e 6f       	ori	r24, 0xFE	; 254
 19c:	9f 6f       	ori	r25, 0xFF	; 255
 19e:	80 95       	com	r24
 1a0:	90 95       	com	r25
 1a2:	88 0f       	add	r24, r24
 1a4:	99 1f       	adc	r25, r25
 1a6:	82 2b       	or	r24, r18
 1a8:	93 2b       	or	r25, r19
 1aa:	23 b1       	in	r18, 0x03	; 3
 1ac:	30 e0       	ldi	r19, 0x00	; 0
 1ae:	2b 6f       	ori	r18, 0xFB	; 251
 1b0:	3f 6f       	ori	r19, 0xFF	; 255
 1b2:	20 95       	com	r18
 1b4:	30 95       	com	r19
 1b6:	2c 7f       	andi	r18, 0xFC	; 252
 1b8:	82 2b       	or	r24, r18
 1ba:	93 2b       	or	r25, r19
 1bc:	23 b1       	in	r18, 0x03	; 3
 1be:	30 e0       	ldi	r19, 0x00	; 0
 1c0:	27 6f       	ori	r18, 0xF7	; 247
 1c2:	3f 6f       	ori	r19, 0xFF	; 255
 1c4:	20 95       	com	r18
 1c6:	30 95       	com	r19
 1c8:	28 7f       	andi	r18, 0xF8	; 248
 1ca:	82 2b       	or	r24, r18
 1cc:	93 2b       	or	r25, r19
 1ce:	82 30       	cpi	r24, 0x02	; 2
 1d0:	91 05       	cpc	r25, r1
 1d2:	59 f0       	breq	.+22     	; 0x1ea <kbrd_read+0x7e>
 1d4:	1c f4       	brge	.+6      	; 0x1dc <kbrd_read+0x70>
 1d6:	01 97       	sbiw	r24, 0x01	; 1
 1d8:	71 f0       	breq	.+28     	; 0x1f6 <kbrd_read+0x8a>
 1da:	05 c0       	rjmp	.+10     	; 0x1e6 <kbrd_read+0x7a>
 1dc:	84 30       	cpi	r24, 0x04	; 4
 1de:	91 05       	cpc	r25, r1
 1e0:	31 f0       	breq	.+12     	; 0x1ee <kbrd_read+0x82>
 1e2:	08 97       	sbiw	r24, 0x08	; 8
 1e4:	31 f0       	breq	.+12     	; 0x1f2 <kbrd_read+0x86>
}

char kbrd_read(void)
{
	//reset_columns();
	char tecla='e';
 1e6:	c5 e6       	ldi	r28, 0x65	; 101
 1e8:	07 c0       	rjmp	.+14     	; 0x1f8 <kbrd_read+0x8c>
		{
		case 1:
			 tecla='7';
		break;
		case 2:
			tecla= '4';
 1ea:	c4 e3       	ldi	r28, 0x34	; 52
		break;
 1ec:	05 c0       	rjmp	.+10     	; 0x1f8 <kbrd_read+0x8c>
		case 4:
			tecla= '1';
 1ee:	c1 e3       	ldi	r28, 0x31	; 49
		break;
 1f0:	03 c0       	rjmp	.+6      	; 0x1f8 <kbrd_read+0x8c>
		case 8:
			tecla= '.';
 1f2:	ce e2       	ldi	r28, 0x2E	; 46
		break;
 1f4:	01 c0       	rjmp	.+2      	; 0x1f8 <kbrd_read+0x8c>
	_delay_ms(KBRD_DELAY);

	switch(KBRD_ROW_MASK_AL())
		{
		case 1:
			 tecla='7';
 1f6:	c7 e3       	ldi	r28, 0x37	; 55
	}	



	//verify second column
	activate_column(1);
 1f8:	81 e0       	ldi	r24, 0x01	; 1
 1fa:	0e 94 e2 03 	call	0x7c4	; 0x7c4 <activate_column>
 1fe:	2f e7       	ldi	r18, 0x7F	; 127
 200:	88 e3       	ldi	r24, 0x38	; 56
 202:	91 e0       	ldi	r25, 0x01	; 1
 204:	21 50       	subi	r18, 0x01	; 1
 206:	80 40       	sbci	r24, 0x00	; 0
 208:	90 40       	sbci	r25, 0x00	; 0
 20a:	e1 f7       	brne	.-8      	; 0x204 <kbrd_read+0x98>
 20c:	00 c0       	rjmp	.+0      	; 0x20e <kbrd_read+0xa2>
 20e:	00 00       	nop

	_delay_ms(KBRD_DELAY);

	switch(KBRD_ROW_MASK_AL())
 210:	83 b1       	in	r24, 0x03	; 3
 212:	90 e0       	ldi	r25, 0x00	; 0
 214:	8e 6f       	ori	r24, 0xFE	; 254
 216:	9f 6f       	ori	r25, 0xFF	; 255
 218:	9c 01       	movw	r18, r24
 21a:	20 95       	com	r18
 21c:	30 95       	com	r19
 21e:	93 b1       	in	r25, 0x03	; 3
 220:	89 2f       	mov	r24, r25
 222:	90 e0       	ldi	r25, 0x00	; 0
 224:	8e 6f       	ori	r24, 0xFE	; 254
 226:	9f 6f       	ori	r25, 0xFF	; 255
 228:	80 95       	com	r24
 22a:	90 95       	com	r25
 22c:	88 0f       	add	r24, r24
 22e:	99 1f       	adc	r25, r25
 230:	82 2b       	or	r24, r18
 232:	93 2b       	or	r25, r19
 234:	23 b1       	in	r18, 0x03	; 3
 236:	30 e0       	ldi	r19, 0x00	; 0
 238:	2b 6f       	ori	r18, 0xFB	; 251
 23a:	3f 6f       	ori	r19, 0xFF	; 255
 23c:	20 95       	com	r18
 23e:	30 95       	com	r19
 240:	2c 7f       	andi	r18, 0xFC	; 252
 242:	82 2b       	or	r24, r18
 244:	93 2b       	or	r25, r19
 246:	23 b1       	in	r18, 0x03	; 3
 248:	30 e0       	ldi	r19, 0x00	; 0
 24a:	27 6f       	ori	r18, 0xF7	; 247
 24c:	3f 6f       	ori	r19, 0xFF	; 255
 24e:	20 95       	com	r18
 250:	30 95       	com	r19
 252:	28 7f       	andi	r18, 0xF8	; 248
 254:	82 2b       	or	r24, r18
 256:	93 2b       	or	r25, r19
 258:	82 30       	cpi	r24, 0x02	; 2
 25a:	91 05       	cpc	r25, r1
 25c:	51 f0       	breq	.+20     	; 0x272 <kbrd_read+0x106>
 25e:	1c f4       	brge	.+6      	; 0x266 <kbrd_read+0xfa>
 260:	01 97       	sbiw	r24, 0x01	; 1
 262:	69 f0       	breq	.+26     	; 0x27e <kbrd_read+0x112>
 264:	0d c0       	rjmp	.+26     	; 0x280 <kbrd_read+0x114>
 266:	84 30       	cpi	r24, 0x04	; 4
 268:	91 05       	cpc	r25, r1
 26a:	29 f0       	breq	.+10     	; 0x276 <kbrd_read+0x10a>
 26c:	08 97       	sbiw	r24, 0x08	; 8
 26e:	29 f0       	breq	.+10     	; 0x27a <kbrd_read+0x10e>
 270:	07 c0       	rjmp	.+14     	; 0x280 <kbrd_read+0x114>
	{
		case 1:
			tecla= '8';
		break;
		case 2:
			tecla= '5';
 272:	c5 e3       	ldi	r28, 0x35	; 53
		break;
 274:	05 c0       	rjmp	.+10     	; 0x280 <kbrd_read+0x114>
		case 4:
			tecla= '2';
 276:	c2 e3       	ldi	r28, 0x32	; 50
		break;
 278:	03 c0       	rjmp	.+6      	; 0x280 <kbrd_read+0x114>
		case 8:
			tecla= '0';// +
 27a:	c0 e3       	ldi	r28, 0x30	; 48
		break;
 27c:	01 c0       	rjmp	.+2      	; 0x280 <kbrd_read+0x114>

	switch(KBRD_ROW_MASK_AL())
	
	{
		case 1:
			tecla= '8';
 27e:	c8 e3       	ldi	r28, 0x38	; 56
	}	
	
	
	
	//verify thirth column
	activate_column(2);
 280:	82 e0       	ldi	r24, 0x02	; 2
 282:	0e 94 e2 03 	call	0x7c4	; 0x7c4 <activate_column>
 286:	2f e7       	ldi	r18, 0x7F	; 127
 288:	88 e3       	ldi	r24, 0x38	; 56
 28a:	91 e0       	ldi	r25, 0x01	; 1
 28c:	21 50       	subi	r18, 0x01	; 1
 28e:	80 40       	sbci	r24, 0x00	; 0
 290:	90 40       	sbci	r25, 0x00	; 0
 292:	e1 f7       	brne	.-8      	; 0x28c <kbrd_read+0x120>
 294:	00 c0       	rjmp	.+0      	; 0x296 <kbrd_read+0x12a>
 296:	00 00       	nop
	
	_delay_ms(KBRD_DELAY);

	switch(KBRD_ROW_MASK_AL())
 298:	83 b1       	in	r24, 0x03	; 3
 29a:	90 e0       	ldi	r25, 0x00	; 0
 29c:	8e 6f       	ori	r24, 0xFE	; 254
 29e:	9f 6f       	ori	r25, 0xFF	; 255
 2a0:	9c 01       	movw	r18, r24
 2a2:	20 95       	com	r18
 2a4:	30 95       	com	r19
 2a6:	93 b1       	in	r25, 0x03	; 3
 2a8:	89 2f       	mov	r24, r25
 2aa:	90 e0       	ldi	r25, 0x00	; 0
 2ac:	8e 6f       	ori	r24, 0xFE	; 254
 2ae:	9f 6f       	ori	r25, 0xFF	; 255
 2b0:	80 95       	com	r24
 2b2:	90 95       	com	r25
 2b4:	88 0f       	add	r24, r24
 2b6:	99 1f       	adc	r25, r25
 2b8:	82 2b       	or	r24, r18
 2ba:	93 2b       	or	r25, r19
 2bc:	23 b1       	in	r18, 0x03	; 3
 2be:	30 e0       	ldi	r19, 0x00	; 0
 2c0:	2b 6f       	ori	r18, 0xFB	; 251
 2c2:	3f 6f       	ori	r19, 0xFF	; 255
 2c4:	20 95       	com	r18
 2c6:	30 95       	com	r19
 2c8:	2c 7f       	andi	r18, 0xFC	; 252
 2ca:	82 2b       	or	r24, r18
 2cc:	93 2b       	or	r25, r19
 2ce:	23 b1       	in	r18, 0x03	; 3
 2d0:	30 e0       	ldi	r19, 0x00	; 0
 2d2:	27 6f       	ori	r18, 0xF7	; 247
 2d4:	3f 6f       	ori	r19, 0xFF	; 255
 2d6:	20 95       	com	r18
 2d8:	30 95       	com	r19
 2da:	28 7f       	andi	r18, 0xF8	; 248
 2dc:	82 2b       	or	r24, r18
 2de:	93 2b       	or	r25, r19
 2e0:	82 30       	cpi	r24, 0x02	; 2
 2e2:	91 05       	cpc	r25, r1
 2e4:	51 f0       	breq	.+20     	; 0x2fa <kbrd_read+0x18e>
 2e6:	1c f4       	brge	.+6      	; 0x2ee <kbrd_read+0x182>
 2e8:	01 97       	sbiw	r24, 0x01	; 1
 2ea:	69 f0       	breq	.+26     	; 0x306 <kbrd_read+0x19a>
 2ec:	0d c0       	rjmp	.+26     	; 0x308 <kbrd_read+0x19c>
 2ee:	84 30       	cpi	r24, 0x04	; 4
 2f0:	91 05       	cpc	r25, r1
 2f2:	29 f0       	breq	.+10     	; 0x2fe <kbrd_read+0x192>
 2f4:	08 97       	sbiw	r24, 0x08	; 8
 2f6:	29 f0       	breq	.+10     	; 0x302 <kbrd_read+0x196>
 2f8:	07 c0       	rjmp	.+14     	; 0x308 <kbrd_read+0x19c>
	{
		case 1:
			tecla= '9';// /
		break;
		case 2:
			tecla= '6';// X
 2fa:	c6 e3       	ldi	r28, 0x36	; 54
		break;
 2fc:	05 c0       	rjmp	.+10     	; 0x308 <kbrd_read+0x19c>
		case 4:
			tecla= '3';// -
 2fe:	c3 e3       	ldi	r28, 0x33	; 51
		break;
 300:	03 c0       	rjmp	.+6      	; 0x308 <kbrd_read+0x19c>
		case 8:
			tecla= '=';
 302:	cd e3       	ldi	r28, 0x3D	; 61
		break;
 304:	01 c0       	rjmp	.+2      	; 0x308 <kbrd_read+0x19c>

	switch(KBRD_ROW_MASK_AL())
	
	{
		case 1:
			tecla= '9';// /
 306:	c9 e3       	ldi	r28, 0x39	; 57
		
	}
	
	
	//verify first column
	activate_column(3);
 308:	83 e0       	ldi	r24, 0x03	; 3
 30a:	0e 94 e2 03 	call	0x7c4	; 0x7c4 <activate_column>
 30e:	2f e7       	ldi	r18, 0x7F	; 127
 310:	88 e3       	ldi	r24, 0x38	; 56
 312:	91 e0       	ldi	r25, 0x01	; 1
 314:	21 50       	subi	r18, 0x01	; 1
 316:	80 40       	sbci	r24, 0x00	; 0
 318:	90 40       	sbci	r25, 0x00	; 0
 31a:	e1 f7       	brne	.-8      	; 0x314 <kbrd_read+0x1a8>
 31c:	00 c0       	rjmp	.+0      	; 0x31e <kbrd_read+0x1b2>
 31e:	00 00       	nop

	_delay_ms(KBRD_DELAY);

	switch(KBRD_ROW_MASK_AL())
 320:	83 b1       	in	r24, 0x03	; 3
 322:	90 e0       	ldi	r25, 0x00	; 0
 324:	8e 6f       	ori	r24, 0xFE	; 254
 326:	9f 6f       	ori	r25, 0xFF	; 255
 328:	9c 01       	movw	r18, r24
 32a:	20 95       	com	r18
 32c:	30 95       	com	r19
 32e:	93 b1       	in	r25, 0x03	; 3
 330:	89 2f       	mov	r24, r25
 332:	90 e0       	ldi	r25, 0x00	; 0
 334:	8e 6f       	ori	r24, 0xFE	; 254
 336:	9f 6f       	ori	r25, 0xFF	; 255
 338:	80 95       	com	r24
 33a:	90 95       	com	r25
 33c:	88 0f       	add	r24, r24
 33e:	99 1f       	adc	r25, r25
 340:	82 2b       	or	r24, r18
 342:	93 2b       	or	r25, r19
 344:	23 b1       	in	r18, 0x03	; 3
 346:	30 e0       	ldi	r19, 0x00	; 0
 348:	2b 6f       	ori	r18, 0xFB	; 251
 34a:	3f 6f       	ori	r19, 0xFF	; 255
 34c:	20 95       	com	r18
 34e:	30 95       	com	r19
 350:	2c 7f       	andi	r18, 0xFC	; 252
 352:	82 2b       	or	r24, r18
 354:	93 2b       	or	r25, r19
 356:	23 b1       	in	r18, 0x03	; 3
 358:	30 e0       	ldi	r19, 0x00	; 0
 35a:	27 6f       	ori	r18, 0xF7	; 247
 35c:	3f 6f       	ori	r19, 0xFF	; 255
 35e:	20 95       	com	r18
 360:	30 95       	com	r19
 362:	28 7f       	andi	r18, 0xF8	; 248
 364:	82 2b       	or	r24, r18
 366:	93 2b       	or	r25, r19
 368:	82 30       	cpi	r24, 0x02	; 2
 36a:	91 05       	cpc	r25, r1
 36c:	51 f0       	breq	.+20     	; 0x382 <kbrd_read+0x216>
 36e:	1c f4       	brge	.+6      	; 0x376 <kbrd_read+0x20a>
 370:	01 97       	sbiw	r24, 0x01	; 1
 372:	69 f0       	breq	.+26     	; 0x38e <kbrd_read+0x222>
 374:	0d c0       	rjmp	.+26     	; 0x390 <kbrd_read+0x224>
 376:	84 30       	cpi	r24, 0x04	; 4
 378:	91 05       	cpc	r25, r1
 37a:	29 f0       	breq	.+10     	; 0x386 <kbrd_read+0x21a>
 37c:	08 97       	sbiw	r24, 0x08	; 8
 37e:	29 f0       	breq	.+10     	; 0x38a <kbrd_read+0x21e>
 380:	07 c0       	rjmp	.+14     	; 0x390 <kbrd_read+0x224>
	{
		case 1:
			tecla= '/';
		break;
		case 2:
			tecla= 'X';
 382:	c8 e5       	ldi	r28, 0x58	; 88
		break;
 384:	05 c0       	rjmp	.+10     	; 0x390 <kbrd_read+0x224>
		case 4:
			tecla= '-';
 386:	cd e2       	ldi	r28, 0x2D	; 45
		break;
 388:	03 c0       	rjmp	.+6      	; 0x390 <kbrd_read+0x224>
		case 8:
			tecla= '+';
 38a:	cb e2       	ldi	r28, 0x2B	; 43
		break;
 38c:	01 c0       	rjmp	.+2      	; 0x390 <kbrd_read+0x224>
	_delay_ms(KBRD_DELAY);

	switch(KBRD_ROW_MASK_AL())
	{
		case 1:
			tecla= '/';
 38e:	cf e2       	ldi	r28, 0x2F	; 47
		case 8:
			tecla= '+';
		break;
	}	
	
	reset_columns();
 390:	0e 94 d0 04 	call	0x9a0	; 0x9a0 <reset_columns>
	{
		return tecla;
	}
	else{return 'e';}
	
}
 394:	8c 2f       	mov	r24, r28
 396:	cf 91       	pop	r28
 398:	08 95       	ret
